; Function Attrs: mustprogress nofree norecurse nosync nounwind willreturn memory(read, inaccessiblemem: none) uwtable
define hidden noundef i32 @_ZN5zxing8BitArray12getNextUnsetEi(ptr noundef nonnull readonly align 8 captures(none) dereferenceable(88) %0, i32 noundef %1) local_unnamed_addr #5 align 2 {
  %3 = getelementptr inbounds nuw i8, ptr %0, i64 12
  %4 = load i32, ptr %3, align 4, !tbaa !10
  %.not = icmp slt i32 %1, %4
  br i1 %.not, label %5, label %13

5:                                                ; preds = %2
  %6 = getelementptr inbounds nuw i8, ptr %0, i64 80
  %7 = load ptr, ptr %6, align 8, !tbaa !23
  %8 = getelementptr inbounds nuw i8, ptr %7, i64 16
  %9 = sext i32 %1 to i64
  %10 = load ptr, ptr %8, align 8, !tbaa !24
  %11 = getelementptr inbounds nuw i32, ptr %10, i64 %9
  %12 = load i32, ptr %11, align 4, !tbaa !28
  br label %13

13:                                               ; preds = %2, %5
  %.0 = phi i32 [ %12, %5 ], [ %4, %2 ]
  ret i32 %.0
}